(lp0
F8.0
aF8.5
aF7.0
aF6.5
aF7.5
aF6.5
aF5.5
aF7.5
aF7.0
aF8.5
aF8.5
aF5.0
aF7.0
aF7.0
aF6.0
aF7.0
aF8.5
aF6.0
aF7.5
aF7.5
aF9.0
aF8.5
aF7.0
aF7.0
aF8.0
aF7.0
aF7.0
aF8.0
aF7.5
aF7.5
aF7.5
aF6.0
aF6.0
aF8.0
aF9.0
aF7.5
aF5.5
aF7.0
aF8.5
aF7.5
aF7.5
aF9.0
aF6.5
aF9.0
aF7.5
aF5.5
aF7.0
aF6.5
aF7.5
aF6.5
aF6.5
aF4.5
aF6.5
aF8.0
aF6.5
aF6.0
aF7.5
aF7.5
aF6.0
aF7.0
aF6.0
aF8.0
aF7.0
aF6.5
aF8.5
aF5.5
aF8.0
aF6.5
aF7.0
aF8.5
aF7.0
aF8.0
aF7.0
aF8.0
aF1.5
aF9.5
aF8.0
aF6.5
aF8.0
aF6.5
aF7.0
aF7.5
aF7.0
aF7.0
aF6.0
aF8.5
aF7.0
aF6.0
aF9.0
aF7.5
aF8.0
aF6.0
aF7.0
aF8.5
aF7.5
aF8.0
aF8.0
aF6.5
aF5.5
aF8.5
aF7.0
aF7.5
aF4.5
aF6.0
aF6.0
aF9.0
aF8.0
aF6.5
aF7.5
aF7.5
aF7.0
aF7.5
aF7.0
aF7.5
aF8.0
aF7.5
aF7.0
aF3.5
aF6.5
aF6.0
aF6.5
aF9.0
aF8.5
aF8.5
aF7.0
aF9.5
aF8.0
aF7.0
aF6.5
aF8.0
aF6.5
aF8.0
aF7.0
aF7.0
aF7.0
aF8.0
aF8.5
aF6.5
aF7.5
aF7.5
aF8.5
aF7.5
aF6.5
aF5.0
aF8.0
aF6.5
aF5.0
aF6.0
aF7.5
aF7.0
aF8.5
aF8.0
aF7.0
aF7.0
aF8.0
aF7.5
aF8.0
aF6.5
aF7.5
aF8.0
aF6.5
aF4.0
aF7.0
aF8.0
aF7.5
aF7.5
aF7.5
aF5.5
aF8.0
aF6.0
aF8.0
aF7.5
aF7.0
aF6.5
aF7.5
aF7.0
aF7.0
aF8.5
aF7.5
aF7.5
aF6.0
aF4.0
aF5.5
aF8.5
aF8.0
aF8.5
aF8.0
aF4.5
aF8.0
aF8.0
aF5.0
aF7.0
aF5.5
aF6.0
aF7.0
aF7.0
aF6.0
aF7.0
aF7.0
aF7.0
aF6.5
aF7.0
aF8.5
aF6.0
aF8.0
aF8.0
aF8.0
aF6.5
aF6.0
aF7.0
aF8.5
aF9.5
aF5.5
aF6.5
aF6.5
aF7.0
aF8.0
aF6.0
aF7.5
aF9.0
aF7.0
aF7.5
aF7.5
aF7.0
aF8.0
aF7.5
aF7.0
aF6.5
aF8.0
aF6.0
aF7.0
aF8.5
aF7.0
aF8.0
aF6.5
aF7.0
aF9.0
aF7.5
aF8.0
aF5.5
aF6.5
aF4.5
aF6.0
aF6.5
aF7.5
aF8.0
aF7.5
aF5.5
aF7.0
aF0.5
aF7.0
aF7.0
aF7.5
aF7.0
aF6.0
aF6.0
aF7.5
aF7.0
aF6.5
aF7.0
aF9.0
aF7.5
aF5.5
aF7.5
aF8.0
aF6.0
aF7.0
aF6.0
aF7.5
aF7.5
aF6.0
aF4.5
aF5.5
aF6.5
aF5.5
aF8.5
aF10.0
aF7.0
aF7.5
aF7.0
aF7.0
aF7.0
aF7.0
aF6.0
aF7.0
aF7.5
aF7.5
aF7.0
aF7.5
aF7.0
aF7.5
aF6.0
aF8.5
aF7.5
aF7.0
aF6.5
aF2.5
aF8.5
aF6.0
aF7.5
aF7.5
aF7.0
aF8.0
aF8.0
aF6.0
aF6.0
aF5.5
aF5.0
aF7.0
aF7.5
aF7.5
aF5.5
aF7.5
aF7.5
aF6.5
aF7.0
aF7.0
aF7.0
aF5.5
aF8.0
aF4.0
aF8.0
aF5.5
aF7.0
aF6.0
aF7.5
aF7.5
aF8.0
aF7.5
aF7.5
aF8.0
aF6.5
aF1.0
aF6.0
aF7.0
aF7.5
aF8.0
aF6.0
aF6.5
aF6.5
aF6.5
aF7.0
aF7.0
aF7.0
aF7.0
aF2.5
aF5.5
aF3.5
aF7.5
aF7.5
aF8.5
aF6.5
aF7.0
aF8.5
aF8.5
aF7.5
aF10.0
aF5.5
aF4.5
aF8.0
aF7.0
aF7.5
aF7.5
aF6.5
aF8.0
aF6.0
aF8.0
aF7.5
aF7.0
aF6.5
aF4.5
aF7.5
aF8.0
aF7.0
aF5.5
aF6.0
aF7.5
aF7.0
aF6.0
aF7.5
aF7.5
aF9.0
aF7.0
aF6.0
aF7.5
aF5.0
aF8.0
aF7.5
aF8.5
aF4.5
aF7.5
aF7.0
aF6.5
aF5.5
aF8.0
aF8.5
aF8.0
aF8.0
aF7.5
aF2.5
aF7.5
aF8.0
aF6.0
aF7.0
aF5.0
aF7.5
aF7.5
aF7.0
aF7.0
aF10.0
aF7.5
aF7.5
aF7.5
aF7.0
aF8.5
aF6.0
aF7.5
aF8.0
aF8.0
aF7.0
aF8.0
aF8.5
aF7.0
aF7.0
aF6.5
aF8.0
aF6.5
aF6.5
aF7.5
aF8.5
aF4.0
aF7.0
aF8.5
aF7.5
aF6.0
aF9.0
aF7.0
aF8.0
aF6.5
aF8.0
aF7.5
aF6.0
aF7.5
aF5.0
aF7.5
aF7.5
aF8.0
aF8.0
aF8.0
aF8.0
aF8.0
aF8.0
aF7.0
aF7.5
aF7.5
aF7.0
aF7.5
aF8.5
aF8.5
aF4.0
aF6.5
aF7.0
aF7.5
aF7.5
aF6.5
aF7.5
aF7.0
aF8.5
aF8.0
aF8.5
aF7.0
aF7.0
aF7.5
aF7.5
aF7.0
aF6.0
aF7.5
aF7.5
aF7.0
aF7.0
aF8.0
aF7.5
aF4.5
aF5.5
aF7.5
aF7.5
aF6.0
aF6.5
aF7.0
aF8.0
aF6.0
aF7.0
aF5.0
aF7.5
aF8.5
aF7.0
aF7.5
aF7.5
aF8.5
aF5.0
aF7.5
aF7.0
aF6.0
aF5.0
aF7.5
aF6.0
aF8.0
aF4.0
aF3.5
aF7.5
aF7.0
aF7.5
aF5.5
aF7.5
aF6.5
aF8.0
aF8.0
aF8.0
aF9.0
aF7.0
aF7.5
aF6.5
aF7.5
aF7.0
aF8.5
aF6.0
aF7.0
aF7.5
aF7.0
aF7.0
aF7.5
aF7.5
aF7.5
aF7.5
aF7.5
aF7.0
aF7.5
aF8.0
aF8.5
aF7.5
aF8.0
aF3.5
aF8.5
aF4.0
aF6.5
aF7.5
aF7.5
aF8.0
aF8.0
aF8.5
aF7.5
aF8.0
aF7.0
aF9.0
aF7.5
aF4.5
aF6.5
aF7.5
aF5.0
aF6.5
aF9.0
aF7.0
aF7.0
aF7.0
aF4.5
aF5.5
aF6.0
aF7.0
aF7.5
aF7.5
aF6.5
aF7.0
aF7.5
aF7.0
aF7.0
aF6.5
aF7.0
aF6.5
aF8.0
aF7.0
aF7.5
aF8.0
aF9.0
aF7.5
aF7.0
aF7.5
aF7.0
aF5.5
aF8.0
aF7.5
aF8.0
aF7.5
aF6.0
aF7.5
aF7.0
aF8.0
aF7.5
aF8.0
aF5.5
aF8.5
aF8.0
aF8.5
aF8.0
aF6.5
aF9.5
aF7.5
aF8.5
aF7.5
aF8.0
aF7.0
aF7.0
aF7.0
aF8.5
aF7.5
aF7.5
aF6.0
aF7.0
aF6.0
aF8.5
aF7.0
aF7.0
aF9.0
aF8.0
aF8.0
aF9.0
aF7.5
aF7.5
aF4.0
aF7.0
aF7.0
aF8.0
aF5.0
aF8.5
aF6.0
aF7.5
aF6.5
aF6.5
aF4.5
aF7.0
aF7.0
aF7.0
aF7.0
aF8.0
aF7.0
aF4.5
aF7.5
aF7.0
aF6.0
aF7.5
aF8.0
aF8.0
aF7.5
aF7.0
aF8.0
aF6.5
aF6.0
aF6.5
aF6.5
aF7.0
aF6.0
aF8.5
aF7.0
aF7.5
aF6.0
aF6.0
aF7.0
aF7.5
aF7.0
aF7.5
aF8.5
aF9.0
aF8.0
aF5.5
aF7.0
aF8.5
aF8.0
aF7.5
aF7.5
aF6.0
aF8.0
aF6.5
aF7.5
aF7.0
aF6.5
aF6.0
aF7.5
aF8.0
aF7.5
aF6.0
aF3.0
aF6.0
aF7.0
aF7.0
aF5.0
aF8.0
aF7.5
aF7.5
aF7.5
aF6.5
aF7.5
aF7.0
aF8.0
aF5.0
aF6.5
aF7.5
aF7.0
aF7.0
aF8.5
aF6.0
aF5.0
aF1.0
aF7.0
aF3.5
aF6.0
aF6.5
aF7.5
aF6.0
aF2.0
aF8.0
aF5.5
aF8.5
aF9.0
aF5.5
aF5.0
aF6.5
aF5.0
aF7.0
aF7.0
aF8.5
aF6.0
aF2.0
aF5.5
aF7.0
aF7.0
aF3.5
aF8.0
aF7.0
aF9.0
aF8.5
aF6.0
aF6.5
aF8.5
aF4.0
aF8.5
aF7.0
aF9.5
aF7.5
aF6.0
aF10.0
aF8.0
aF8.0
aF8.0
aF7.0
aF8.0
aF10.0
aF7.5
aF8.0
aF5.0
aF6.5
aF6.0
aF5.0
aF8.5
aF6.5
aF8.0
aF7.0
aF9.0
aF7.5
aF6.0
aF7.0
aF7.5
aF8.0
aF4.0
aF7.5
aF8.0
aF8.0
aF7.5
aF8.0
aF7.5
aF7.0
aF8.5
aF7.0
aF6.5
aF7.0
aF2.5
aF6.5
aF8.0
aF6.5
aF5.5
aF8.5
aF7.5
aF8.0
aF7.5
aF8.0
aF3.5
aF7.0
aF7.5
aF8.0
aF4.0
aF5.5
aF7.5
aF7.0
aF7.5
aF8.0
aF8.5
aF7.5
aF7.5
aF7.0
aF6.0
aF7.5
aF6.0
aF7.0
aF7.0
aF8.5
aF6.5
aF7.5
aF6.0
aF7.0
aF7.5
aF7.0
aF8.0
aF8.5
aF6.0
aF5.5
aF6.0
aF5.0
aF8.0
aF5.0
aF8.5
aF5.5
aF8.0
aF7.0
aF7.0
aF6.0
aF7.5
aF7.5
aF7.5
aF7.0
aF7.0
aF8.5
aF7.5
aF7.5
aF8.5
aF9.0
aF7.5
aF8.5
aF7.5
aF7.5
aF6.0
aF8.0
aF8.0
aF4.0
aF7.5
aF8.5
aF6.0
aF7.5
aF7.0
aF7.5
aF8.0
aF7.5
aF8.5
aF5.0
aF7.5
aF7.5
aF7.0
aF7.5
aF5.0
aF8.0
aF7.5
aF7.0
aF7.5
aF3.5
aF8.0
aF7.0
aF8.0
aF8.5
aF7.0
aF10.0
aF7.0
aF7.5
aF6.5
aF8.0
aF7.5
aF8.0
aF6.5
aF6.5
aF6.0
aF7.0
aF8.0
aF6.0
aF9.0
aF8.0
aF5.5
aF6.0
aF7.5
aF8.0
aF6.5
aF9.0
aF7.5
aF7.0
aF8.5
aF7.0
aF9.5
aF6.5
aF9.0
aF6.0
aF8.0
aF5.0
aF8.0
aF8.0
aF7.0
aF6.5
aF6.5
aF4.0
aF8.0
aF7.0
aF6.5
aF6.0
aF6.5
aF7.5
aF8.0
aF9.0
aF7.5
aF8.0
aF8.0
aF7.5
aF7.0
aF8.0
aF6.5
aF8.0
aF7.5
aF8.0
aF6.5
aF6.0
aF6.0
aF8.0
aF7.5
aF6.0
aF8.0
aF6.5
aF7.0
aF7.0
aF6.5
aF7.5
aF7.0
aF7.0
aF6.5
aF7.5
aF5.0
aF7.5
aF6.5
aF8.0
aF8.0
aF7.0
aF6.0
aF8.0
aF7.0
aF7.0
aF3.5
aF6.5
aF7.0
aF8.5
aF5.5
aF6.5
aF6.5
aF6.0
aF7.5
aF7.0
aF4.0
aF7.5
aF8.0
aF8.0
aF6.0
aF7.5
aF7.5
aF7.5
aF6.5
aF5.5
aF7.5
aF7.0
aF9.0
aF7.0
aF8.5
aF8.0
aF6.5
aF5.5
aF3.0
aF7.5
aF7.0
aF6.5
aF8.0
aF7.5
aF3.5
aF6.0
aF6.5
aF6.5
aF7.5
aF7.0
aF5.0
aF8.0
aF7.0
aF8.0
aF7.0
aF8.0
aF6.5
aF7.5
aF7.5
aF7.5
aF5.0
aF7.5
aF8.5
aF8.5
aF7.5
aF7.0
aF6.5
aF7.0
aF6.5
aF8.5
aF7.5
aF8.0
aF7.0
aF7.5
aF8.0
aF6.0
aF5.0
aF7.0
aF7.5
aF8.0
aF7.5
aF6.0
aF7.5
aF6.0
aF8.0
aF7.5
aF7.5
aF7.0
aF7.5
aF8.0
aF7.5
aF8.0
aF7.0
aF9.0
aF7.5
aF7.0
aF5.5
aF7.0
aF6.0
aF6.0
aF7.0
aF7.0
aF7.5
aF8.0
aF6.0
aF8.5
aF7.0
aF8.0
aF7.0
aF7.0
aF7.5
aF7.5
aF6.0
aF5.0
aF7.5
aF8.5
aF7.5
aF7.0
aF7.0
aF7.0
aF7.5
aF8.0
aF5.0
aF4.5
aF6.5
aF8.5
aF6.5
aF7.0
aF6.5
aF6.0
aF7.5
aF8.0
aF8.0
aF7.0
aF5.5
aF7.5
aF6.5
aF8.0
aF7.0
aF7.5
aF5.0
aF8.0
aF7.0
aF6.0
aF4.0
aF8.0
aF7.0
aF8.0
aF5.0
aF4.0
aF8.0
aF7.5
aF8.0
aF7.0
aF6.0
aF8.0
aF8.0
aF7.5
aF7.0
aF4.5
aF7.5
aF8.0
aF6.5
aF7.0
aF6.0
aF8.0
aF7.5
aF8.5
aF5.5
aF9.5
aF7.5
aF8.0
aF8.0
aF7.0
aF7.5
aF5.0
aF9.5
aF7.5
aF7.5
aF8.5
aF7.0
aF7.0
aF7.5
aF7.5
aF8.0
aF7.5
aF6.5
aF6.5
aF5.0
aF6.0
aF8.0
aF7.5
aF7.5
aF5.5
aF10.0
aF7.5
aF8.5
aF8.5
aF8.0
aF4.5
aF6.5
aF7.0
aF8.5
aF6.5
aF5.5
aF7.0
aF7.5
aF7.5
aF7.5
aF7.5
aF5.0
aF8.0
aF5.5
aF6.5
aF7.5
aF8.0
aF7.5
aF7.5
aF8.0
aF7.0
aF6.5
aF8.0
aF8.5
aF8.0
aF6.0
aF8.5
aF7.0
aF8.0
aF8.5
aF7.5
aF7.0
aF8.0
aF5.5
aF7.0
aF7.0
aF4.5
aF8.0
aF4.5
aF6.5
aF8.0
aF6.5
aF6.5
aF6.5
aF8.5
aF8.0
aF5.5
aF7.5
aF6.0
aF5.0
aF9.5
aF8.0
aF8.5
aF7.0
aF6.0
aF7.5
aF8.5
aF8.5
aF6.5
aF7.5
aF9.5
aF8.5
aF6.5
aF8.0
aF5.5
aF3.0
aF6.0
aF8.5
aF6.0
aF7.0
aF8.0
aF6.5
aF10.0
aF5.0
aF7.5
aF7.0
aF6.5
aF7.0
aF7.0
aF8.0
aF4.0
aF7.5
aF7.0
aF7.5
aF8.0
aF8.5
aF6.0
aF7.5
aF8.0
aF6.5
aF7.5
aF7.0
aF6.5
aF7.0
aF8.0
aF7.0
aF5.0
aF8.0
aF5.5
aF4.0
aF6.5
aF7.5
aF6.5
aF7.0
aF3.0
aF5.5
aF7.0
aF7.5
aF5.0
aF7.5
aF8.0
aF3.0
aF7.0
aF7.5
aF7.0
aF7.0
aF6.0
aF8.0
aF6.5
aF9.5
aF8.0
aF7.0
aF8.5
aF8.0
aF7.0
aF6.5
aF7.5
aF7.0
aF4.5
aF6.5
aF7.5
aF8.0
aF7.5
aF7.0
aF7.5
aF7.0
aF7.5
aF6.0
aF6.5
aF5.5
aF7.0
aF7.0
aF7.0
aF7.5
aF6.0
aF6.5
aF7.5
aF6.5
aF6.5
aF5.5
aF8.0
aF8.0
aF6.0
aF8.0
aF5.5
aF6.0
aF6.0
aF7.5
aF7.5
aF8.0
aF5.5
aF7.5
aF7.0
aF5.5
aF8.5
aF9.0
aF10.0
aF7.5
aF7.5
aF7.0
aF7.5
aF7.5
aF7.0
aF8.0
aF3.5
aF7.0
aF8.0
aF9.5
aF8.0
aF8.0
aF6.5
aF5.0
aF8.0
aF6.5
aF7.5
aF8.5
aF7.5
aF7.5
aF6.5
aF8.5
aF7.0
aF8.0
aF8.0
aF5.5
aF6.0
aF6.0
aF8.5
aF4.0
aF4.5
aF7.0
aF8.0
aF8.0
aF7.5
aF7.5
aF6.5
aF8.0
aF7.5
aF6.5
aF7.0
aF8.5
aF6.5
aF6.0
aF5.0
aF7.5
aF7.0
aF7.0
aF7.5
aF7.0
aF6.5
aF7.0
aF5.0
aF6.5
aF5.0
aF7.0
aF5.0
aF7.0
aF6.5
aF6.0
aF6.0
aF4.0
aF7.0
aF9.0
aF9.0
aF7.5
aF2.5
aF5.0
aF6.5
aF7.5
aF7.0
aF8.5
aF7.5
aF8.0
aF8.0
aF7.0
aF8.0
aF8.5
aF8.0
aF8.5
aF7.0
aF7.0
aF9.0
aF5.0
aF6.0
aF3.0
aF7.5
aF5.0
aF5.5
aF5.0
aF6.5
aF6.5
aF6.0
aF8.0
aF5.0
aF8.0
aF6.5
aF8.0
aF9.0
aF6.0
aF7.0
aF7.5
aF7.5
aF8.0
aF8.0
aF5.5
aF4.0
aF7.5
aF7.0
aF8.0
aF6.5
aF7.0
aF7.5
aF7.5
aF8.0
aF7.0
aF7.0
aF5.5
aF7.5
aF7.0
aF8.5
aF7.0
aF7.5
aF5.0
aF7.0
aF5.0
aF6.0
aF8.0
aF6.0
aF7.0
aF7.5
aF8.0
aF7.5
aF5.5
aF7.5
aF8.0
aF7.5
aF6.5
aF7.0
aF7.0
aF7.0
aF7.5
aF5.5
aF7.0
aF6.5
aF6.5
aF6.5
aF8.0
aF6.5
aF7.5
aF4.0
aF7.5
aF7.5
aF9.5
aF7.0
aF8.0
aF7.5
aF8.0
aF7.5
aF7.0
aF7.5
aF8.0
aF7.5
aF6.0
aF6.0
aF8.0
aF8.5
aF7.0
aF8.0
aF7.5
aF6.5
aF8.0
aF6.5
aF7.0
aF7.5
aF7.5
aF7.5
aF7.5
aF7.5
aF7.0
aF8.0
aF7.0
aF4.0
aF7.0
aF7.0
aF6.0
aF7.5
aF10.0
aF7.5
aF5.5
aF7.5
aF6.0
aF6.5
aF8.5
aF6.5
aF7.5
aF8.0
aF7.0
aF8.5
aF7.5
aF7.5
aF5.5
aF6.0
aF6.0
aF7.0
aF6.5
aF7.5
aF6.5
aF8.5
aF8.0
aF6.0
aF6.0
aF7.5
aF8.0
aF8.0
aF7.5
aF8.0
aF5.0
aF7.0
aF8.0
aF8.5
aF6.5
aF8.0
aF6.5
aF4.5
aF7.5
aF6.5
aF6.5
aF6.0
aF7.0
aF7.5
aF8.0
aF4.5
aF7.5
aF7.5
aF7.5
aF8.5
aF8.0
aF5.5
aF8.5
aF6.5
aF6.5
aF7.0
aF8.0
aF8.0
aF7.5
aF8.0
aF8.5
aF8.5
aF6.0
aF7.5
aF7.0
aF7.5
aF7.5
aF6.5
aF7.0
aF7.0
aF7.0
aF8.0
aF6.0
aF8.0
aF7.5
aF5.5
aF6.5
aF8.0
aF7.5
aF9.0
aF9.0
aF7.0
aF5.5
aF1.5
aF7.5
aF8.5
aF8.0
aF8.0
aF7.5
aF7.0
aF7.0
aF10.0
aF6.5
aF7.0
aF6.5
aF7.0
aF7.5
aF7.5
aF9.5
aF8.0
aF7.5
aF7.5
aF7.0
aF8.0
aF5.5
aF7.0
aF7.5
aF7.0
aF3.0
aF7.5
aF6.5
aF7.0
aF8.0
aF6.0
aF7.5
aF7.0
aF8.5
aF7.5
aF7.5
aF7.5
aF8.0
aF7.5
aF5.5
aF7.0
aF6.5
aF6.5
aF8.0
aF8.0
aF8.0
aF7.5
aF7.5
aF8.0
aF8.0
aF7.0
aF4.0
aF6.5
aF8.0
aF7.5
aF6.0
aF6.5
aF2.0
aF7.5
aF7.0
aF5.5
aF6.0
aF6.5
aF7.0
aF7.0
aF5.0
aF6.5
aF6.5
aF7.5
aF2.0
aF7.0
aF7.5
aF6.0
aF6.5
aF8.0
aF7.5
aF8.0
aF7.0
aF8.0
aF7.5
aF8.5
aF9.0
aF9.0
aF8.0
aF4.5
aF7.5
aF7.5
aF8.5
aF8.0
aF7.5
aF7.5
aF7.0
aF6.5
aF8.5
aF9.0
aF2.5
aF7.5
aF7.5
aF7.0
aF6.5
aF8.0
aF8.5
aF8.5
aF7.0
aF7.5
aF7.0
aF8.0
aF5.5
aF7.5
aF6.0
aF7.0
aF8.0
aF8.0
aF7.5
aF7.5
aF5.5
aF7.0
aF8.0
aF9.5
aF6.5
aF7.0
aF7.0
aF7.0
aF6.0
aF8.0
aF5.5
aF8.5
aF2.0
aF8.0
aF6.5
aF6.5
aF7.5
aF4.0
aF7.5
aF6.5
aF8.0
aF7.0
aF7.5
aF6.5
aF8.5
aF6.0
aF7.5
aF5.5
aF6.5
aF9.5
aF7.0
aF6.5
aF1.5
aF7.0
aF6.5
aF6.0
aF5.0
aF8.0
aF7.0
aF8.5
aF7.5
aF3.0
aF6.5
aF7.0
aF7.0
aF7.0
aF7.5
aF7.0
aF7.0
aF4.0
aF8.0
aF8.5
aF7.5
aF8.0
aF5.5
aF8.0
aF6.5
aF7.0
aF7.0
aF8.0
aF6.5
aF6.5
aF8.0
aF7.0
aF8.0
aF8.0
aF7.5
aF6.0
aF7.5
aF8.0
aF4.5
aF7.0
aF7.0
aF8.0
aF8.5
aF7.0
aF7.0
aF7.5
aF4.5
aF8.0
aF2.5
aF9.5
aF7.5
aF7.5
aF7.5
aF5.5
aF7.0
aF2.0
aF6.0
aF8.0
aF2.5
aF8.0
aF7.5
aF7.5
aF6.5
aF5.5
aF6.0
aF8.0
aF5.0
aF7.0
aF7.0
aF7.5
aF6.0
aF8.0
aF7.5
aF6.5
aF8.5
aF8.5
aF4.0
aF7.5
aF6.5
aF7.5
aF3.5
aF7.5
aF4.5
aF7.5
aF8.0
aF6.5
aF7.0
aF8.0
aF7.0
aF5.0
aF7.5
aF7.5
aF8.0
aF7.0
aF8.0
aF7.0
aF8.0
aF6.5
aF8.5
aF5.0
aF7.5
aF7.0
aF7.0
aF8.5
aF5.5
aF7.5
aF7.0
aF7.5
aF7.5
aF7.5
aF8.5
aF7.0
aF5.5
aF8.0
aF7.5
aF8.0
aF8.5
aF8.0
aF8.5
aF7.0
aF7.5
aF8.0
aF8.0
aF3.5
aF7.0
aF7.0
aF6.5
aF6.5
aF8.0
aF7.5
aF7.0
aF7.5
aF7.5
aF7.5
aF8.5
aF8.0
aF6.5
aF6.5
aF8.0
aF7.0
aF7.5
aF8.5
aF7.5
aF6.0
aF5.0
aF8.0
aF7.0
aF7.0
aF7.5
aF5.0
aF6.5
aF9.0
aF9.5
aF7.5
aF8.5
aF7.0
aF7.5
aF6.0
aF6.5
aF8.0
aF8.5
aF5.0
aF8.0
aF7.5
aF4.5
aF8.5
aF6.5
aF8.0
aF8.0
aF8.0
aF9.0
aF8.5
aF6.0
aF7.5
aF10.0
aF7.0
aF6.0
aF7.5
aF8.5
aF7.5
aF7.0
aF8.5
aF8.0
aF7.0
aF8.0
aF9.0
aF5.0
aF8.5
aF9.0
aF8.0
aF7.0
aF7.0
aF8.0
aF8.5
aF6.0
aF6.0
aF8.0
aF7.5
aF6.0
aF6.5
aF8.0
aF8.5
aF7.0
aF5.5
aF6.0
aF7.0
aF7.0
aF7.0
aF7.0
aF7.5
aF9.0
aF7.0
aF7.5
aF7.0
aF7.0
aF7.5
aF6.0
aF6.0
aF7.5
aF8.0
aF8.0
aF7.5
aF8.0
aF7.0
aF7.0
aF7.0
aF4.0
aF7.5
aF8.5
aF7.5
aF7.5
aF7.5
aF8.0
aF5.5
aF7.5
aF8.5
aF7.5
aF8.0
aF6.0
aF7.5
aF6.0
aF6.5
aF7.5
aF6.0
aF7.5
aF8.0
aF6.0
aF7.5
aF5.5
aF6.5
aF7.0
aF5.5
aF7.5
aF8.0
aF7.0
aF10.0
aF7.5
aF8.0
aF6.0
aF6.5
aF7.0
aF6.0
aF4.0
aF4.5
aF8.5
aF8.0
aF8.0
aF7.0
aF8.0
aF4.0
aF7.5
aF6.5
aF8.0
aF8.0
aF9.0
aF6.0
aF4.5
aF7.0
aF5.5
aF8.0
aF7.5
aF7.5
aF8.0
aF8.0
aF5.0
aF7.0
aF8.0
aF7.5
aF7.5
aF8.0
aF7.0
aF5.0
aF8.0
aF7.0
aF7.0
aF6.0
aF7.0
aF8.0
aF8.0
aF8.0
aF8.0
aF7.0
aF8.0
aF6.5
aF8.0
aF6.5
aF6.5
aF5.5
aF6.5
aF7.5
aF7.0
aF7.5
aF6.0
aF8.5
aF5.0
aF6.5
aF6.5
aF5.0
aF9.0
aF7.5
aF7.0
aF5.0
aF8.0
aF8.5
aF7.5
aF8.5
aF7.5
aF6.0
aF7.0
aF5.5
aF6.5
aF7.5
aF8.0
aF7.0
aF7.5
aF8.0
aF8.0
aF5.0
aF7.5
aF8.5
aF6.5
aF6.5
aF8.5
aF7.0
aF7.5
aF6.5
aF8.0
aF7.5
aF7.0
aF8.0
aF7.0
aF9.0
aF6.0
aF8.0
aF7.5
aF8.0
aF8.5
aF7.5
aF7.5
aF7.0
aF6.5
aF6.5
aF7.5
aF4.5
aF7.0
aF7.0
aF8.5
aF8.0
aF5.0
aF7.5
aF7.0
aF8.0
aF7.5
aF4.0
aF9.5
aF7.5
aF7.0
aF8.0
aF7.0
aF7.5
aF7.5
aF7.0
aF6.5
aF7.5
aF6.5
aF5.0
aF8.5
aF4.5
aF8.0
aF7.5
aF7.5
aF7.5
aF6.5
aF8.0
aF7.0
aF8.0
aF5.5
aF6.5
aF7.5
aF7.0
aF6.5
aF5.0
aF5.0
aF1.5
aF7.0
aF8.0
aF7.5
aF6.5
aF6.5
aF7.5
aF8.0
aF7.5
aF7.0
aF7.5
aF8.0
aF8.5
aF6.0
aF8.5
aF6.5
aF7.5
aF7.0
aF5.0
aF8.5
aF8.0
aF7.5
aF7.0
aF4.5
aF7.0
aF7.0
aF8.0
aF8.0
aF8.0
aF7.0
aF8.0
aF8.5
aF4.5
aF8.0
aF7.0
aF7.0
aF6.0
aF4.5
aF6.5
aF6.0
aF6.5
aF9.0
aF6.5
aF7.5
aF6.5
aF8.0
aF5.0
aF8.0
aF7.5
aF7.5
aF6.5
aF6.5
aF6.0
aF7.5
aF7.5
aF6.0
aF7.0
aF8.0
aF7.5
aF7.0
aF7.5
aF8.0
aF6.5
aF9.0
aF8.5
aF7.5
aF8.0
aF8.0
aF7.0
aF7.0
aF7.0
aF7.0
aF7.5
aF7.0
aF6.5
aF5.5
aF8.0
aF7.0
aF7.0
aF8.0
aF7.0
aF7.0
aF5.5
aF7.5
aF5.5
aF7.0
aF6.5
aF8.0
aF8.5
aF6.5
aF8.5
aF7.5
aF6.5
aF7.5
aF7.5
aF8.0
aF7.5
aF7.5
aF8.0
aF7.0
aF7.5
aF6.5
aF6.5
aF6.5
aF7.0
aF6.5
aF8.5
aF7.5
aF6.0
aF7.5
aF8.0
aF6.0
aF7.0
aF7.5
aF6.5
aF5.0
aF7.0
aF7.0
aF7.0
aF3.0
aF7.5
aF7.5
aF8.5
aF7.0
aF7.5
aF7.0
aF7.0
aF8.0
aF8.5
aF7.5
aF4.0
aF6.0
aF7.0
aF7.5
aF7.5
aF6.5
aF6.0
aF7.5
aF7.0
aF8.5
aF7.0
aF7.5
aF7.0
aF7.0
aF7.0
aF7.5
aF8.5
aF7.5
aF5.5
aF8.0
aF7.5
aF7.0
aF7.0
aF7.0
aF8.5
aF7.5
aF6.5
aF7.0
aF7.5
aF6.5
aF8.5
aF4.5
aF7.0
aF9.0
aF7.0
aF8.0
aF6.0
aF6.0
aF8.5
aF7.5
aF5.0
aF7.0
aF7.0
aF6.0
aF7.5
aF7.5
aF7.0
aF7.0
aF4.5
aF8.0
aF8.0
aF8.0
aF8.5
aF8.0
aF7.0
aF7.0
aF7.0
aF7.5
aF7.5
aF6.5
aF7.5
aF7.5
aF7.0
aF7.0
aF8.0
aF8.0
aF7.5
aF4.5
aF8.0
aF4.0
aF7.0
aF6.0
aF7.5
aF6.5
aF6.5
aF5.5
aF0.0
aF8.0
aF8.0
aF6.5
aF8.0
aF7.5
aF6.5
aF7.5
aF9.5
aF7.0
aF8.5
aF8.0
aF8.0
aF4.0
aF7.0
aF5.0
aF5.0
aF9.0
aF8.5
aF6.5
aF7.5
aF7.5
aF8.0
aF8.0
aF6.0
aF5.5
aF6.5
aF7.0
aF6.0
aF7.0
aF7.0
aF7.5
aF8.0
aF8.0
aF4.0
aF7.5
aF8.0
aF9.0
aF7.5
aF8.5
aF8.5
aF8.5
aF6.0
aF8.5
aF9.0
aF9.0
aF7.0
aF7.0
aF5.5
aF6.0
aF7.5
aF7.5
aF7.5
aF6.0
aF7.0
aF8.0
aF7.0
aF7.5
aF2.0
aF8.0
aF5.5
aF7.5
aF7.0
aF5.5
aF6.0
aF6.0
aF7.0
aF6.0
aF1.5
aF7.0
aF5.5
aF7.5
aF6.5
aF5.5
aF6.5
aF7.0
aF7.5
aF7.0
aF5.5
aF7.5
aF6.5
aF8.0
aF8.5
aF8.5
aF5.0
aF7.0
aF6.0
aF7.5
aF8.0
aF5.0
aF6.5
aF5.5
aF7.5
aF8.5
aF6.0
aF7.5
aF7.0
aF7.0
aF8.5
aF8.5
aF4.5
aF6.0
aF8.0
aF7.5
aF7.5
aF7.0
aF8.0
aF7.5
aF8.5
aF6.5
aF5.5
aF7.5
aF5.5
aF6.5
aF6.5
aF6.5
aF7.0
aF6.5
aF7.0
aF9.0
aF7.0
aF7.5
aF5.0
aF7.5
aF8.0
aF8.0
aF7.0
aF10.0
aF7.5
aF9.5
aF7.0
aF7.0
aF7.0
aF7.0
aF6.0
aF8.0
aF7.0
aF7.0
aF6.0
aF6.5
aF7.0
aF8.0
aF8.0
aF9.0
aF7.5
aF5.5
aF8.0
aF7.5
aF7.0
aF7.5
aF7.0
aF7.0
aF8.0
aF8.5
aF8.0
aF4.0
aF9.5
aF5.0
aF7.5
aF8.0
aF6.5
aF8.0
aF8.0
aF7.0
aF7.5
aF8.5
aF7.5
aF6.0
aF4.5
aF8.5
aF6.5
aF6.5
aF7.5
aF7.5
aF8.5
aF7.0
aF8.5
aF5.0
aF7.5
aF8.0
aF6.5
aF6.0
aF8.5
aF4.0
aF7.5
aF7.5
aF5.5
aF6.0
aF7.5
aF7.0
aF7.5
aF7.5
aF7.5
aF7.5
aF8.0
aF6.5
aF8.5
aF8.0
aF7.5
aF7.0
aF7.5
aF7.0
aF6.0
aF7.5
aF5.0
aF5.0
aF7.0
aF7.5
aF7.5
aF7.5
aF8.5
aF6.0
aF7.5
aF8.0
aF7.0
aF8.5
aF7.0
aF7.5
aF7.5
aF8.0
aF8.0
aF7.5
aF8.0
aF7.5
aF7.0
aF8.0
aF7.0
aF6.5
aF8.0
aF7.0
aF6.5
aF8.0
aF7.0
aF10.0
aF8.0
aF8.5
aF7.0
aF8.5
aF6.5
aF8.0
aF8.0
aF6.5
aF7.0
aF4.0
aF7.5
aF9.0
aF5.5
aF8.5
aF6.5
aF4.5
aF7.0
aF0.5
aF6.5
aF7.5
aF7.0
aF6.0
aF8.0
aF5.5
aF7.5
aF6.5
aF7.0
aF7.5
aF8.0
aF7.0
aF4.5
aF8.0
aF8.0
aF8.5
aF8.5
aF8.5
aF7.0
aF7.5
aF7.0
aF7.5
aF6.0
aF6.5
aF4.5
aF6.0
aF6.5
aF8.5
aF8.0
aF6.5
aF7.0
aF7.5
aF7.0
aF9.0
aF6.5
aF8.0
aF8.5
aF8.0
aF7.0
aF8.0
aF7.0
aF8.0
aF6.0
aF6.0
aF7.0
aF7.0
aF7.5
aF6.5
aF9.5
aF7.0
aF7.0
aF7.5
aF6.0
aF6.5
aF6.5
aF8.0
aF8.0
aF9.0
aF7.0
aF5.5
aF7.5
aF7.5
aF6.5
aF7.0
aF4.5
aF5.5
aF9.5
aF7.0
aF7.0
aF7.0
aF7.5
aF5.0
aF7.0
aF7.5
aF6.5
aF7.0
aF6.5
aF8.0
aF6.5
aF10.0
aF7.5
aF7.5
aF7.0
aF6.5
aF6.5
aF5.0
aF8.5
aF7.5
aF6.5
aF7.0
aF8.0
aF5.0
aF7.5
aF6.0
aF7.0
aF8.0
aF7.0
aF7.5
aF7.5
aF9.0
aF8.5
aF7.0
aF8.5
aF7.0
aF6.0
aF5.5
aF5.0
aF8.0
aF7.5
aF7.5
aF6.5
aF7.0
aF6.0
aF8.5
aF8.0
aF8.5
aF6.5
aF6.0
aF7.0
aF7.5
aF7.5
aF5.0
aF7.0
aF6.0
aF7.0
aF8.0
aF7.5
aF6.5
aF7.0
aF5.5
aF7.0
aF8.0
aF6.5
aF6.0
aF8.5
aF7.5
aF7.0
aF8.0
aF7.0
aF7.5
aF8.0
aF7.5
aF8.0
aF7.5
aF6.5
aF8.5
aF7.0
aF8.0
aF7.5
aF8.0
aF0.0
aF7.0
aF9.0
aF3.5
aF7.0
aF6.5
aF8.0
aF4.0
aF7.5
aF6.0
aF7.0
aF8.0
aF6.5
aF8.0
aF3.0
aF7.0
aF7.5
aF5.5
aF7.5
aF7.5
aF5.0
aF8.0
aF7.5
aF6.5
aF7.0
aF7.0
aF8.0
aF7.0
aF7.0
aF7.5
aF7.0
aF8.5
aF7.0
aF8.5
aF9.5
aF7.5
aF8.0
aF7.5
aF7.0
aF7.0
aF5.0
aF8.0
aF8.5
aF7.5
aF7.5
aF8.5
aF8.5
aF7.0
aF7.5
aF7.5
aF2.0
aF8.0
aF8.0
aF6.0
aF6.0
aF4.5
aF7.0
aF7.0
aF6.0
aF7.5
aF4.0
aF2.0
aF8.5
aF7.0
aF7.0
aF7.5
aF7.5
aF7.5
aF7.0
aF7.5
aF7.5
aF6.5
aF8.0
aF5.5
aF8.5
aF5.0
aF7.5
aF7.0
aF5.5
aF7.5
aF8.5
aF7.5
aF6.0
aF4.5
aF8.5
aF8.0
aF5.5
aF7.5
aF6.0
aF7.5
aF7.0
aF7.5
aF8.0
aF7.0
aF7.5
aF7.5
aF7.5
aF7.0
aF6.0
aF3.0
aF8.0
aF7.5
aF7.5
aF7.0
aF7.5
aF6.0
aF7.5
aF7.0
aF6.0
aF6.0
aF4.5
aF8.5
aF6.5
aF7.5
aF7.5
aF7.5
aF7.5
aF6.5
aF5.5
aF6.5
aF8.0
aF7.5
aF7.5
aF7.5
aF7.5
aF7.0
aF7.0
aF5.5
aF7.0
aF7.5
aF9.0
aF7.5
aF7.5
aF7.5
aF7.5
aF7.0
aF7.0
aF7.5
aF7.5
aF8.0
aF7.0
aF4.5
aF10.0
aF7.0
aF4.5
aF5.5
aF8.0
aF7.5
aF7.5
aF1.0
aF8.5
aF7.0
aF6.5
aF7.0
aF7.5
aF8.0
aF2.5
aF7.0
aF7.0
aF6.0
aF7.5
aF8.5
aF7.5
aF8.0
aF5.5
aF8.0
aF6.5
aF7.5
aF7.5
aF6.5
aF8.5
aF6.5
aF3.0
aF8.5
aF5.5
aF8.0
aF6.0
aF7.0
aF6.5
aF8.0
aF8.5
aF7.0
aF7.0
aF7.0
aF8.0
aF6.5
aF8.0
aF6.0
aF9.5
aF6.5
aF4.5
aF7.0
aF5.0
aF6.5
aF7.5
aF6.5
aF7.0
aF7.0
aF6.5
aF5.5
aF7.0
aF6.5
aF8.5
aF6.5
aF7.0
aF5.5
aF8.0
aF8.0
aF5.0
aF8.0
aF7.0
aF7.5
aF4.5
aF8.0
aF6.0
aF6.5
aF9.0
aF6.5
aF9.5
aF7.0
aF8.0
aF7.5
aF6.5
aF3.5
aF7.0
aF7.5
aF7.0
aF8.0
aF8.0
aF7.0
aF7.0
aF8.0
aF7.0
aF5.0
aF8.5
aF8.5
aF7.5
aF8.5
aF8.0
aF5.5
aF4.5
aF8.0
aF9.0
aF7.5
aF7.0
aF9.5
aF5.5
aF6.5
aF7.0
aF8.0
aF7.0
aF7.5
aF7.5
aF8.0
aF7.0
aF8.0
aF7.5
aF6.0
aF6.0
aF7.5
aF7.5
aF7.5
aF6.5
aF6.0
aF7.0
aF7.5
aF8.0
aF6.5
aF7.5
aF6.5
aF8.0
aF7.0
aF8.0
aF8.0
aF6.5
aF8.5
aF6.0
aF7.5
aF5.5
aF8.0
aF5.0
aF7.5
aF7.5
aF8.0
aF8.0
aF5.5
aF5.5
aF7.0
aF8.5
aF8.0
aF5.5
aF2.0
aF4.0
aF7.0
aF8.0
aF6.0
aF7.5
aF7.5
aF7.5
aF8.0
aF7.5
aF8.0
aF7.0
aF7.5
aF7.5
aF5.5
aF5.5
aF4.5
aF6.0
aF8.0
aF7.5
aF4.0
aF7.5
aF8.0
aF8.5
aF8.0
aF8.0
aF8.5
aF6.0
aF4.0
aF10.0
aF4.5
aF8.0
aF7.0
aF7.0
aF8.0
aF6.0
aF7.0
aF8.0
aF5.0
aF6.0
aF7.5
aF6.0
aF8.0
aF8.0
aF7.5
aF6.0
aF9.5
aF7.5
aF7.5
aF5.5
aF7.0
aF6.5
aF8.0
aF8.0
aF7.5
aF8.5
aF9.0
aF7.0
aF6.0
aF8.0
aF6.5
aF6.5
aF7.0
aF7.0
aF7.5
aF8.0
aF8.0
aF2.5
aF6.0
aF8.0
aF6.0
aF8.0
aF8.0
aF7.0
aF7.0
aF6.5
aF7.5
aF8.0
aF5.0
aF6.0
aF7.5
aF8.0
aF7.5
aF3.0
aF8.0
aF8.0
aF7.0
aF7.5
aF6.0
aF6.5
aF5.5
aF9.0
aF5.5
aF8.0
aF7.5
aF8.0
aF9.0
aF6.0
aF7.0
aF8.0
aF7.5
aF9.0
aF7.0
aF7.5
aF9.0
aF6.0
aF8.0
aF7.5
aF4.5
aF7.5
aF4.0
aF6.5
aF7.5
aF4.5
aF7.5
aF6.0
aF7.0
aF6.5
aF7.0
aF8.0
aF5.5
aF8.0
aF7.5
aF9.0
aF8.0
aF7.5
aF5.0
aF7.0
aF7.0
aF4.0
aF6.5
aF7.5
aF7.0
aF7.5
aF7.5
aF7.5
aF6.5
aF6.5
aF7.0
aF8.0
aF8.0
aF6.0
aF9.0
aF7.5
aF7.0
aF7.5
aF6.0
aF9.0
aF3.5
aF4.5
aF6.0
aF7.0
aF6.5
aF8.5
aF7.0
aF8.0
aF6.0
aF7.0
aF7.5
aF7.5
aF6.5
aF6.5
aF6.0
aF6.0
aF8.5
aF8.0
aF6.0
aF8.0
aF8.0
aF6.0
aF9.0
aF7.5
aF8.0
aF7.5
aF5.0
aF7.0
aF8.0
aF8.0
aF6.5
aF7.0
aF8.5
aF7.0
aF6.0
aF8.5
aF8.0
aF7.0
aF8.0
aF6.0
aF6.0
aF5.5
aF5.5
aF5.0
aF6.0
aF7.5
aF6.5
aF8.5
aF7.0
aF7.5
aF7.5
aF8.0
aF5.5
aF5.0
aF8.0
aF3.5
aF8.0
aF8.5
aF8.5
aF8.0
aF7.5
aF7.5
aF8.5
aF7.5
aF8.0
aF6.0
aF7.5
aF7.0
aF8.5
aF6.0
aF7.0
aF8.0
aF6.0
aF7.0
aF8.0
aF7.0
aF8.0
aF7.0
aF7.5
aF6.0
aF6.0
aF4.5
aF6.0
aF8.0
aF7.5
aF6.0
aF7.5
aF7.0
aF5.0
aF7.0
aF6.5
aF3.0
aF7.0
aF7.0
aF8.0
aF6.0
aF7.5
aF7.5
aF6.5
aF7.5
aF8.0
aF8.0
aF7.5
aF6.5
aF8.5
aF8.0
aF5.0
aF7.5
aF8.5
aF6.0
aF7.5
aF8.5
aF3.0
aF7.5
aF8.0
aF7.0
aF6.5
aF4.5
aF5.5
aF8.5
aF8.0
aF7.5
aF7.5
aF6.5
aF7.5
aF2.5
aF7.0
aF7.5
aF4.5
aF6.0
aF8.0
aF6.0
aF8.5
aF7.0
aF7.5
aF8.0
aF8.0
aF8.0
aF7.0
aF6.5
aF4.5
aF7.0
aF5.5
aF7.5
aF5.0
aF6.5
aF8.0
aF7.0
aF8.0
aF8.0
aF6.0
aF7.0
aF9.0
aF6.0
aF7.5
aF7.0
aF7.0
aF7.0
aF7.5
aF6.0
aF7.0
aF8.0
aF8.0
aF8.5
aF5.0
aF8.0
aF8.5
aF8.0
aF8.5
aF7.0
aF6.0
aF8.0
aF8.0
aF8.5
aF6.0
aF7.0
aF6.5
aF8.0
aF7.5
aF6.0
aF8.5
aF5.5
aF10.0
aF8.0
aF6.0
aF7.0
aF6.5
aF5.5
aF5.5
aF7.5
aF7.0
aF7.0
aF6.5
aF6.5
aF7.5
aF7.5
aF7.0
aF7.0
aF7.5
aF7.5
aF7.0
aF7.0
aF8.0
aF7.5
aF7.5
aF7.0
aF7.0
aF5.5
aF7.5
aF6.5
aF7.5
aF7.5
aF8.5
aF9.5
aF6.0
aF7.5
aF7.0
aF5.5
aF8.0
aF7.5
aF7.5
aF8.0
aF6.5
aF4.5
aF6.5
aF7.0
aF6.5
aF8.0
aF8.0
aF6.5
aF8.0
aF7.0
aF5.5
aF7.0
aF7.5
aF8.0
aF7.0
aF8.0
aF4.5
aF6.5
aF7.0
aF8.5
aF8.5
aF8.0
aF6.5
aF7.5
aF6.5
aF7.5
aF7.0
aF7.0
aF5.5
aF8.0
aF7.0
aF6.0
aF8.0
aF8.0
aF6.5
aF8.0
aF7.5
aF8.0
aF8.5
aF3.5
aF5.0
aF8.0
aF6.5
aF8.0
aF8.5
aF8.0
aF3.5
aF5.0
aF7.5
aF2.5
aF7.0
aF6.0
aF7.5
aF10.0
aF7.0
aF6.5
aF8.0
aF5.5
aF6.5
aF6.5
aF8.5
aF7.5
aF7.0
aF8.5
aF7.5
aF7.5
aF8.5
aF8.0
aF7.0
aF7.5
aF6.5
aF8.0
aF8.0
aF8.0
aF4.5
aF7.0
aF7.0
aF5.0
aF5.0
aF7.0
aF9.5
aF7.5
aF7.5
aF7.0
aF7.0
aF7.0
aF6.5
aF8.0
aF8.5
aF6.5
aF8.0
aF6.0
aF6.0
aF6.5
aF6.5
aF9.0
aF7.0
aF3.5
aF7.5
aF7.5
aF8.0
aF7.0
aF8.0
aF7.5
aF7.5
aF8.0
aF7.5
aF7.0
aF6.5
aF5.5
aF7.5
aF7.0
aF8.0
aF5.5
aF7.5
aF10.0
aF7.0
aF7.5
aF7.0
aF7.0
aF7.5
aF5.0
aF4.0
aF8.0
aF7.0
aF6.0
aF7.5
aF6.5
aF8.0
aF8.0
aF8.5
aF8.5
aF6.5
aF7.0
aF4.0
aF7.5
aF8.0
aF4.5
aF7.0
aF7.5
aF8.0
aF7.5
aF8.0
aF8.0
aF7.0
aF8.5
aF7.0
aF9.5
aF5.0
aF8.0
aF6.5
aF7.5
aF8.0
aF8.0
aF10.0
aF7.5
aF7.5
aF8.0
aF6.5
aF6.5
aF8.0
aF7.0
a.